target datalayout = "e-m:e-p270:32:32-p271:32:32-p272:64:64-i64:64-i128:128-f80:128-n8:16:32:64-S128"
target triple = "x86_64-pc-linux-gnu"

%"class.Ipopt::SmartPtr" = type { ptr }
%"class.Ipopt::CompoundVector" = type <{ %"class.Ipopt::Vector.base", [3 x i8], %"class.std::vector.0", %"class.std::vector.5", ptr, i8, [7 x i8] }>
%"class.Ipopt::Vector.base" = type <{ %"class.Ipopt::TaggedObject", %"class.Ipopt::SmartPtr", %"class.Ipopt::CachedResults", i32, [4 x i8], double, i32, [4 x i8], double, i32, [4 x i8], double, i32, [4 x i8], double, i32, [4 x i8], double, i32, [4 x i8], double, i32, [4 x i8], double, i32, i8 }>
%"class.Ipopt::TaggedObject" = type { %"class.Ipopt::ReferencedObject.base", %"class.Ipopt::Subject", i32, i32 }
%"class.Ipopt::ReferencedObject.base" = type <{ ptr, i32 }>
%"class.Ipopt::Subject" = type { ptr, %"class.std::vector" }
%"class.std::vector" = type { %"struct.std::_Vector_base" }
%"struct.std::_Vector_base" = type { %"struct.std::_Vector_base<Ipopt::Observer *, std::allocator<Ipopt::Observer *>>::_Vector_impl" }
%"struct.std::_Vector_base<Ipopt::Observer *, std::allocator<Ipopt::Observer *>>::_Vector_impl" = type { %"struct.std::_Vector_base<Ipopt::Observer *, std::allocator<Ipopt::Observer *>>::_Vector_impl_data" }
%"struct.std::_Vector_base<Ipopt::Observer *, std::allocator<Ipopt::Observer *>>::_Vector_impl_data" = type { ptr, ptr, ptr }
%"class.Ipopt::CachedResults" = type { ptr, i32, ptr }
%"class.std::vector.0" = type { %"struct.std::_Vector_base.1" }
%"struct.std::_Vector_base.1" = type { %"struct.std::_Vector_base<Ipopt::SmartPtr<Ipopt::Vector>, std::allocator<Ipopt::SmartPtr<Ipopt::Vector>>>::_Vector_impl" }
%"struct.std::_Vector_base<Ipopt::SmartPtr<Ipopt::Vector>, std::allocator<Ipopt::SmartPtr<Ipopt::Vector>>>::_Vector_impl" = type { %"struct.std::_Vector_base<Ipopt::SmartPtr<Ipopt::Vector>, std::allocator<Ipopt::SmartPtr<Ipopt::Vector>>>::_Vector_impl_data" }
%"struct.std::_Vector_base<Ipopt::SmartPtr<Ipopt::Vector>, std::allocator<Ipopt::SmartPtr<Ipopt::Vector>>>::_Vector_impl_data" = type { ptr, ptr, ptr }
%"class.std::vector.5" = type { %"struct.std::_Vector_base.6" }
%"struct.std::_Vector_base.6" = type { %"struct.std::_Vector_base<Ipopt::SmartPtr<const Ipopt::Vector>, std::allocator<Ipopt::SmartPtr<const Ipopt::Vector>>>::_Vector_impl" }
%"struct.std::_Vector_base<Ipopt::SmartPtr<const Ipopt::Vector>, std::allocator<Ipopt::SmartPtr<const Ipopt::Vector>>>::_Vector_impl" = type { %"struct.std::_Vector_base<Ipopt::SmartPtr<const Ipopt::Vector>, std::allocator<Ipopt::SmartPtr<const Ipopt::Vector>>>::_Vector_impl_data" }
%"struct.std::_Vector_base<Ipopt::SmartPtr<const Ipopt::Vector>, std::allocator<Ipopt::SmartPtr<const Ipopt::Vector>>>::_Vector_impl_data" = type { ptr, ptr, ptr }
%"class.Ipopt::Vector" = type <{ %"class.Ipopt::TaggedObject", %"class.Ipopt::SmartPtr", %"class.Ipopt::CachedResults", i32, [4 x i8], double, i32, [4 x i8], double, i32, [4 x i8], double, i32, [4 x i8], double, i32, [4 x i8], double, i32, [4 x i8], double, i32, [4 x i8], double, i32, i8, [3 x i8] }>
%"class.Ipopt::CompoundVectorSpace" = type { %"class.Ipopt::VectorSpace", i32, %"class.std::vector.10" }
%"class.Ipopt::VectorSpace" = type { %"class.Ipopt::ReferencedObject.base", i32 }
%"class.std::vector.10" = type { %"struct.std::_Vector_base.11" }
%"struct.std::_Vector_base.11" = type { %"struct.std::_Vector_base<Ipopt::SmartPtr<const Ipopt::VectorSpace>, std::allocator<Ipopt::SmartPtr<const Ipopt::VectorSpace>>>::_Vector_impl" }
%"struct.std::_Vector_base<Ipopt::SmartPtr<const Ipopt::VectorSpace>, std::allocator<Ipopt::SmartPtr<const Ipopt::VectorSpace>>>::_Vector_impl" = type { %"struct.std::_Vector_base<Ipopt::SmartPtr<const Ipopt::VectorSpace>, std::allocator<Ipopt::SmartPtr<const Ipopt::VectorSpace>>>::_Vector_impl_data" }
%"struct.std::_Vector_base<Ipopt::SmartPtr<const Ipopt::VectorSpace>, std::allocator<Ipopt::SmartPtr<const Ipopt::VectorSpace>>>::_Vector_impl_data" = type { ptr, ptr, ptr }
%"class.Ipopt::SmartPtr.15" = type { ptr }
%"class.Ipopt::SmartPtr.16" = type { ptr }

; Function Attrs: mustprogress nounwind uwtable
define linkonce_odr noundef zeroext i1 @_ZN5Ipopt6IsNullIKNS_6VectorEEEbRKNS_8SmartPtrIT_EE(ptr noundef nonnull align 8 dereferenceable(8) %0) #2 comdat {
  %2 = alloca ptr, align 8
  store ptr %0, ptr %2, align 8, !tbaa !89
  %3 = load ptr, ptr %2, align 8, !tbaa !89
  %4 = getelementptr inbounds nuw %"class.Ipopt::SmartPtr.16", ptr %3, i32 0, i32 0
  %5 = load ptr, ptr %4, align 8, !tbaa !98
  %6 = icmp eq ptr %5, null
  ret i1 %6
}

; Function Attrs: mustprogress nounwind uwtable
define linkonce_odr noundef zeroext i1 @_ZN5Ipopt6IsNullINS_6VectorEEEbRKNS_8SmartPtrIT_EE(ptr noundef nonnull align 8 dereferenceable(8) %0) #2 comdat {
  %2 = alloca ptr, align 8
  store ptr %0, ptr %2, align 8, !tbaa !84
  %3 = load ptr, ptr %2, align 8, !tbaa !84
  %4 = getelementptr inbounds nuw %"class.Ipopt::SmartPtr.15", ptr %3, i32 0, i32 0
  %5 = load ptr, ptr %4, align 8, !tbaa !144
  %6 = icmp eq ptr %5, null
  ret i1 %6
}

; Function Attrs: inlinehint mustprogress nounwind uwtable
define linkonce_odr noundef nonnull align 8 dereferenceable(8) ptr @_ZSt3maxIdERKT_S2_S2_(ptr noundef nonnull align 8 dereferenceable(8) %0, ptr noundef nonnull align 8 dereferenceable(8) %1) #4 comdat {
  %3 = alloca ptr, align 8
  %4 = alloca ptr, align 8
  %5 = alloca ptr, align 8
  store ptr %0, ptr %4, align 8, !tbaa !247
  store ptr %1, ptr %5, align 8, !tbaa !247
  %6 = load ptr, ptr %4, align 8, !tbaa !247
  %7 = load double, ptr %6, align 8, !tbaa !100
  %8 = load ptr, ptr %5, align 8, !tbaa !247
  %9 = load double, ptr %8, align 8, !tbaa !100
  %10 = fcmp olt double %7, %9
  br i1 %10, label %11, label %13

11:                                               ; preds = %2
  %12 = load ptr, ptr %5, align 8, !tbaa !247
  store ptr %12, ptr %3, align 8
  br label %15

13:                                               ; preds = %2
  %14 = load ptr, ptr %4, align 8, !tbaa !247
  store ptr %14, ptr %3, align 8
  br label %15

15:                                               ; preds = %13, %11
  %16 = load ptr, ptr %3, align 8
  ret ptr %16
}

; Function Attrs: mustprogress nounwind uwtable
define linkonce_odr noundef i32 @_ZNK5Ipopt12TaggedObject6GetTagEv(ptr noundef nonnull align 8 dereferenceable(56) %0) #2 comdat align 2 {
  %2 = alloca ptr, align 8
  store ptr %0, ptr %2, align 8, !tbaa !154
  %3 = load ptr, ptr %2, align 8
  %4 = getelementptr inbounds nuw %"class.Ipopt::TaggedObject", ptr %3, i32 0, i32 2
  %5 = load i32, ptr %4, align 8, !tbaa !246
  ret i32 %5
}

; Function Attrs: mustprogress nounwind uwtable
define linkonce_odr noundef ptr @_ZN5Ipopt9GetRawPtrIKNS_6VectorEEEPT_RKNS_8SmartPtrIS3_EE(ptr noundef nonnull align 8 dereferenceable(8) %0) #2 comdat {
  %2 = alloca ptr, align 8
  store ptr %0, ptr %2, align 8, !tbaa !89
  %3 = load ptr, ptr %2, align 8, !tbaa !89
  %4 = getelementptr inbounds nuw %"class.Ipopt::SmartPtr.16", ptr %3, i32 0, i32 0
  %5 = load ptr, ptr %4, align 8, !tbaa !98
  ret ptr %5
}

; Function Attrs: mustprogress uwtable
define linkonce_odr noundef zeroext i1 @_ZN5Ipopt7IsValidIKNS_6VectorEEEbRKNS_8SmartPtrIT_EE(ptr noundef nonnull align 8 dereferenceable(8) %0) #0 comdat {
  %2 = alloca ptr, align 8
  store ptr %0, ptr %2, align 8, !tbaa !89
  %3 = load ptr, ptr %2, align 8, !tbaa !89
  %4 = call noundef zeroext i1 @_ZN5Ipopt6IsNullIKNS_6VectorEEEbRKNS_8SmartPtrIT_EE(ptr noundef nonnull align 8 dereferenceable(8) %3)
  %5 = xor i1 %4, true
  ret i1 %5
}

; Function Attrs: mustprogress nounwind uwtable
define linkonce_odr noundef nonnull align 8 dereferenceable(8) ptr @_ZNKSt6vectorIN5Ipopt8SmartPtrIKNS0_6VectorEEESaIS4_EEixEm(ptr noundef nonnull align 8 dereferenceable(24) %0, i64 noundef %1) #2 comdat align 2 {
  %3 = alloca ptr, align 8
  %4 = alloca i64, align 8
  store ptr %0, ptr %3, align 8, !tbaa !77
  store i64 %1, ptr %4, align 8, !tbaa !71
  %5 = load ptr, ptr %3, align 8
  %6 = getelementptr inbounds nuw %"struct.std::_Vector_base.6", ptr %5, i32 0, i32 0
  %7 = getelementptr inbounds nuw %"struct.std::_Vector_base<Ipopt::SmartPtr<const Ipopt::Vector>, std::allocator<Ipopt::SmartPtr<const Ipopt::Vector>>>::_Vector_impl_data", ptr %6, i32 0, i32 0
  %8 = load ptr, ptr %7, align 8, !tbaa !86
  %9 = load i64, ptr %4, align 8, !tbaa !71
  %10 = getelementptr inbounds nuw %"class.Ipopt::SmartPtr.16", ptr %8, i64 %9
  ret ptr %10
}

; Function Attrs: mustprogress nounwind uwtable
define linkonce_odr noundef ptr @_ZN5Ipopt9GetRawPtrINS_6VectorEEEPT_RKNS_8SmartPtrIS2_EE(ptr noundef nonnull align 8 dereferenceable(8) %0) #2 comdat {
  %2 = alloca ptr, align 8
  store ptr %0, ptr %2, align 8, !tbaa !84
  %3 = load ptr, ptr %2, align 8, !tbaa !84
  %4 = getelementptr inbounds nuw %"class.Ipopt::SmartPtr.15", ptr %3, i32 0, i32 0
  %5 = load ptr, ptr %4, align 8, !tbaa !144
  ret ptr %5
}

; Function Attrs: mustprogress uwtable
define linkonce_odr noundef zeroext i1 @_ZN5Ipopt7IsValidINS_6VectorEEEbRKNS_8SmartPtrIT_EE(ptr noundef nonnull align 8 dereferenceable(8) %0) #0 comdat {
  %2 = alloca ptr, align 8
  store ptr %0, ptr %2, align 8, !tbaa !84
  %3 = load ptr, ptr %2, align 8, !tbaa !84
  %4 = call noundef zeroext i1 @_ZN5Ipopt6IsNullINS_6VectorEEEbRKNS_8SmartPtrIT_EE(ptr noundef nonnull align 8 dereferenceable(8) %3)
  %5 = xor i1 %4, true
  ret i1 %5
}

; Function Attrs: mustprogress nounwind uwtable
define linkonce_odr noundef nonnull align 8 dereferenceable(8) ptr @_ZNKSt6vectorIN5Ipopt8SmartPtrINS0_6VectorEEESaIS3_EEixEm(ptr noundef nonnull align 8 dereferenceable(24) %0, i64 noundef %1) #2 comdat align 2 {
  %3 = alloca ptr, align 8
  %4 = alloca i64, align 8
  store ptr %0, ptr %3, align 8, !tbaa !69
  store i64 %1, ptr %4, align 8, !tbaa !71
  %5 = load ptr, ptr %3, align 8
  %6 = getelementptr inbounds nuw %"struct.std::_Vector_base.1", ptr %5, i32 0, i32 0
  %7 = getelementptr inbounds nuw %"struct.std::_Vector_base<Ipopt::SmartPtr<Ipopt::Vector>, std::allocator<Ipopt::SmartPtr<Ipopt::Vector>>>::_Vector_impl_data", ptr %6, i32 0, i32 0
  %8 = load ptr, ptr %7, align 8, !tbaa !83
  %9 = load i64, ptr %4, align 8, !tbaa !71
  %10 = getelementptr inbounds nuw %"class.Ipopt::SmartPtr.15", ptr %8, i64 %9
  ret ptr %10
}

; Function Attrs: mustprogress nounwind uwtable
define linkonce_odr noundef i32 @_ZNK5Ipopt19CompoundVectorSpace11NCompSpacesEv(ptr noundef nonnull align 8 dereferenceable(48) %0) #2 comdat align 2 {
  %2 = alloca ptr, align 8
  store ptr %0, ptr %2, align 8, !tbaa !8
  %3 = load ptr, ptr %2, align 8
  %4 = getelementptr inbounds nuw %"class.Ipopt::CompoundVectorSpace", ptr %3, i32 0, i32 1
  %5 = load i32, ptr %4, align 8, !tbaa !59
  ret i32 %5
}

; Function Attrs: inlinehint mustprogress uwtable
define linkonce_odr noundef double @_ZN5Ipopt3MaxIdEET_S1_S1_(double noundef %0, double noundef %1) #1 comdat {
  %3 = alloca double, align 8
  %4 = alloca double, align 8
  store double %0, ptr %3, align 8, !tbaa !100
  store double %1, ptr %4, align 8, !tbaa !100
  %5 = call noundef nonnull align 8 dereferenceable(8) ptr @_ZSt3maxIdERKT_S2_S2_(ptr noundef nonnull align 8 dereferenceable(8) %3, ptr noundef nonnull align 8 dereferenceable(8) %4)
  %6 = load double, ptr %5, align 8, !tbaa !100
  ret double %6
}

; Function Attrs: inlinehint mustprogress uwtable
define linkonce_odr noundef double @_ZNK5Ipopt6Vector4AmaxEv(ptr noundef nonnull align 8 dereferenceable(205) %0) #1 comdat align 2 {
  %2 = alloca ptr, align 8
  store ptr %0, ptr %2, align 8, !tbaa !48
  %3 = load ptr, ptr %2, align 8
  %4 = getelementptr inbounds nuw %"class.Ipopt::Vector", ptr %3, i32 0, i32 9
  %5 = load i32, ptr %4, align 8, !tbaa !53
  %6 = call noundef i32 @_ZNK5Ipopt12TaggedObject6GetTagEv(ptr noundef nonnull align 8 dereferenceable(56) %3)
  %7 = icmp ne i32 %5, %6
  br i1 %7, label %8, label %16

8:                                                ; preds = %1
  %9 = load ptr, ptr %3, align 8, !tbaa !12
  %10 = getelementptr inbounds ptr, ptr %9, i64 8
  %11 = load ptr, ptr %10, align 8
  %12 = call noundef double %11(ptr noundef nonnull align 8 dereferenceable(205) %3)
  %13 = getelementptr inbounds nuw %"class.Ipopt::Vector", ptr %3, i32 0, i32 11
  store double %12, ptr %13, align 8, !tbaa !93
  %14 = call noundef i32 @_ZNK5Ipopt12TaggedObject6GetTagEv(ptr noundef nonnull align 8 dereferenceable(56) %3)
  %15 = getelementptr inbounds nuw %"class.Ipopt::Vector", ptr %3, i32 0, i32 9
  store i32 %14, ptr %15, align 8, !tbaa !53
  br label %16

16:                                               ; preds = %8, %1
  %17 = getelementptr inbounds nuw %"class.Ipopt::Vector", ptr %3, i32 0, i32 11
  %18 = load double, ptr %17, align 8, !tbaa !93
  ret double %18
}

; Function Attrs: inlinehint mustprogress uwtable
define linkonce_odr noundef ptr @_ZNK5Ipopt14CompoundVector9ConstCompEi(ptr noundef nonnull align 8 dereferenceable(265) %0, i32 noundef %1) #1 comdat align 2 {
  %3 = alloca ptr, align 8
  %4 = alloca ptr, align 8
  %5 = alloca i32, align 4
  store ptr %0, ptr %4, align 8, !tbaa !3
  store i32 %1, ptr %5, align 4, !tbaa !43
  %6 = load ptr, ptr %4, align 8
  %7 = getelementptr inbounds nuw %"class.Ipopt::CompoundVector", ptr %6, i32 0, i32 2
  %8 = load i32, ptr %5, align 4, !tbaa !43
  %9 = sext i32 %8 to i64
  %10 = call noundef nonnull align 8 dereferenceable(8) ptr @_ZNKSt6vectorIN5Ipopt8SmartPtrINS0_6VectorEEESaIS3_EEixEm(ptr noundef nonnull align 8 dereferenceable(24) %7, i64 noundef %9) #17
  %11 = call noundef zeroext i1 @_ZN5Ipopt7IsValidINS_6VectorEEEbRKNS_8SmartPtrIT_EE(ptr noundef nonnull align 8 dereferenceable(8) %10)
  br i1 %11, label %12, label %18

12:                                               ; preds = %2
  %13 = getelementptr inbounds nuw %"class.Ipopt::CompoundVector", ptr %6, i32 0, i32 2
  %14 = load i32, ptr %5, align 4, !tbaa !43
  %15 = sext i32 %14 to i64
  %16 = call noundef nonnull align 8 dereferenceable(8) ptr @_ZNKSt6vectorIN5Ipopt8SmartPtrINS0_6VectorEEESaIS3_EEixEm(ptr noundef nonnull align 8 dereferenceable(24) %13, i64 noundef %15) #17
  %17 = call noundef ptr @_ZN5Ipopt9GetRawPtrINS_6VectorEEEPT_RKNS_8SmartPtrIS2_EE(ptr noundef nonnull align 8 dereferenceable(8) %16)
  store ptr %17, ptr %3, align 8
  br label %32

18:                                               ; preds = %2
  %19 = getelementptr inbounds nuw %"class.Ipopt::CompoundVector", ptr %6, i32 0, i32 3
  %20 = load i32, ptr %5, align 4, !tbaa !43
  %21 = sext i32 %20 to i64
  %22 = call noundef nonnull align 8 dereferenceable(8) ptr @_ZNKSt6vectorIN5Ipopt8SmartPtrIKNS0_6VectorEEESaIS4_EEixEm(ptr noundef nonnull align 8 dereferenceable(24) %19, i64 noundef %21) #17
  %23 = call noundef zeroext i1 @_ZN5Ipopt7IsValidIKNS_6VectorEEEbRKNS_8SmartPtrIT_EE(ptr noundef nonnull align 8 dereferenceable(8) %22)
  br i1 %23, label %24, label %30

24:                                               ; preds = %18
  %25 = getelementptr inbounds nuw %"class.Ipopt::CompoundVector", ptr %6, i32 0, i32 3
  %26 = load i32, ptr %5, align 4, !tbaa !43
  %27 = sext i32 %26 to i64
  %28 = call noundef nonnull align 8 dereferenceable(8) ptr @_ZNKSt6vectorIN5Ipopt8SmartPtrIKNS0_6VectorEEESaIS4_EEixEm(ptr noundef nonnull align 8 dereferenceable(24) %25, i64 noundef %27) #17
  %29 = call noundef ptr @_ZN5Ipopt9GetRawPtrIKNS_6VectorEEEPT_RKNS_8SmartPtrIS3_EE(ptr noundef nonnull align 8 dereferenceable(8) %28)
  store ptr %29, ptr %3, align 8
  br label %32

30:                                               ; preds = %18
  br label %31

31:                                               ; preds = %30
  store ptr null, ptr %3, align 8
  br label %32

32:                                               ; preds = %31, %24, %12
  %33 = load ptr, ptr %3, align 8
  ret ptr %33
}

; Function Attrs: inlinehint mustprogress nounwind uwtable
define linkonce_odr noundef i32 @_ZNK5Ipopt14CompoundVector6NCompsEv(ptr noundef nonnull align 8 dereferenceable(265) %0) #4 comdat align 2 {
  %2 = alloca ptr, align 8
  store ptr %0, ptr %2, align 8, !tbaa !3
  %3 = load ptr, ptr %2, align 8
  %4 = getelementptr inbounds nuw %"class.Ipopt::CompoundVector", ptr %3, i32 0, i32 4
  %5 = load ptr, ptr %4, align 8, !tbaa !14
  %6 = call noundef i32 @_ZNK5Ipopt19CompoundVectorSpace11NCompSpacesEv(ptr noundef nonnull align 8 dereferenceable(48) %5)
  ret i32 %6
}

; Function Attrs: mustprogress uwtable
define noundef double @_ZNK5Ipopt14CompoundVector8AmaxImplEv(ptr noundef nonnull align 8 dereferenceable(265) %0) unnamed_addr #0 align 2 {
  %2 = alloca ptr, align 8
  %3 = alloca double, align 8
  %4 = alloca i32, align 4
  store ptr %0, ptr %2, align 8, !tbaa !3
  %5 = load ptr, ptr %2, align 8
  call void @llvm.lifetime.start.p0(i64 8, ptr %3) #17
  store double 0.000000e+00, ptr %3, align 8, !tbaa !100
  call void @llvm.lifetime.start.p0(i64 4, ptr %4) #17
  store i32 0, ptr %4, align 4, !tbaa !43
  br label %6

6:                                                ; preds = %17, %1
  %7 = load i32, ptr %4, align 4, !tbaa !43
  %8 = call noundef i32 @_ZNK5Ipopt14CompoundVector6NCompsEv(ptr noundef nonnull align 8 dereferenceable(265) %5)
  %9 = icmp slt i32 %7, %8
  br i1 %9, label %11, label %10

10:                                               ; preds = %6
  call void @llvm.lifetime.end.p0(i64 4, ptr %4) #17
  br label %20

11:                                               ; preds = %6
  %12 = load double, ptr %3, align 8, !tbaa !100
  %13 = load i32, ptr %4, align 4, !tbaa !43
  %14 = call noundef ptr @_ZNK5Ipopt14CompoundVector9ConstCompEi(ptr noundef nonnull align 8 dereferenceable(265) %5, i32 noundef %13)
  %15 = call noundef double @_ZNK5Ipopt6Vector4AmaxEv(ptr noundef nonnull align 8 dereferenceable(205) %14)
  %16 = call noundef double @_ZN5Ipopt3MaxIdEET_S1_S1_(double noundef %12, double noundef %15)
  store double %16, ptr %3, align 8, !tbaa !100
  br label %17

17:                                               ; preds = %11
  %18 = load i32, ptr %4, align 4, !tbaa !43
  %19 = add nsw i32 %18, 1
  store i32 %19, ptr %4, align 4, !tbaa !43
  br label %6, !llvm.loop !106

20:                                               ; preds = %10
  %21 = load double, ptr %3, align 8, !tbaa !100
  call void @llvm.lifetime.end.p0(i64 8, ptr %3) #17
  ret double %21
}