; Function Attrs: mustprogress uwtable
define noundef double @_ZNK5Ipopt14CompoundVector8AmaxImplEv(ptr noundef nonnull readonly align 8 captures(none) dereferenceable(265) %0) unnamed_addr #0 align 2 {
  %2 = getelementptr inbounds nuw i8, ptr %0, i64 256
  %3 = load ptr, ptr %2, align 8, !tbaa !60
  %4 = getelementptr inbounds nuw i8, ptr %3, i64 16
  %5 = load i32, ptr %4, align 8, !tbaa !37
  %6 = icmp sgt i32 %5, 0
  br i1 %6, label %.lr.ph, label %._crit_edge

.lr.ph:                                           ; preds = %1
  %7 = getelementptr inbounds nuw i8, ptr %0, i64 208
  %8 = getelementptr inbounds nuw i8, ptr %0, i64 232
  br label %9

._crit_edge:                                      ; preds = %_ZNK5Ipopt6Vector4AmaxEv.exit, %1
  %.05.lcssa = phi double [ 0.000000e+00, %1 ], [ %.sroa.speculated.i, %_ZNK5Ipopt6Vector4AmaxEv.exit ]
  ret double %.05.lcssa

9:                                                ; preds = %.lr.ph, %_ZNK5Ipopt6Vector4AmaxEv.exit
  %10 = phi ptr [ %3, %.lr.ph ], [ %29, %_ZNK5Ipopt6Vector4AmaxEv.exit ]
  %indvars.iv = phi i64 [ 0, %.lr.ph ], [ %indvars.iv.next, %_ZNK5Ipopt6Vector4AmaxEv.exit ]
  %.057 = phi double [ 0.000000e+00, %.lr.ph ], [ %.sroa.speculated.i, %_ZNK5Ipopt6Vector4AmaxEv.exit ]
  %11 = load ptr, ptr %7, align 8, !tbaa !45
  %12 = getelementptr inbounds nuw %"class.Ipopt::SmartPtr.15", ptr %11, i64 %indvars.iv
  %13 = load ptr, ptr %12, align 8, !tbaa !48
  %.not.i = icmp eq ptr %13, null
  br i1 %.not.i, label %14, label %_ZNK5Ipopt14CompoundVector9ConstCompEi.exit

14:                                               ; preds = %9
  %15 = load ptr, ptr %8, align 8, !tbaa !53
  %16 = getelementptr inbounds nuw %"class.Ipopt::SmartPtr.16", ptr %15, i64 %indvars.iv
  %17 = load ptr, ptr %16, align 8, !tbaa !56
  br label %_ZNK5Ipopt14CompoundVector9ConstCompEi.exit

_ZNK5Ipopt14CompoundVector9ConstCompEi.exit:      ; preds = %9, %14
  %.0.i = phi ptr [ %13, %9 ], [ %17, %14 ]
  %18 = getelementptr inbounds nuw i8, ptr %.0.i, i64 120
  %19 = load i32, ptr %18, align 8, !tbaa !31
  %20 = getelementptr inbounds nuw i8, ptr %.0.i, i64 48
  %21 = load i32, ptr %20, align 8, !tbaa !89
  %.not.i6 = icmp eq i32 %19, %21
  br i1 %.not.i6, label %._crit_edge.i, label %22

._crit_edge.i:                                    ; preds = %_ZNK5Ipopt14CompoundVector9ConstCompEi.exit
  %.phi.trans.insert.i = getelementptr inbounds nuw i8, ptr %.0.i, i64 128
  %.pre.i = load double, ptr %.phi.trans.insert.i, align 8, !tbaa !92
  br label %_ZNK5Ipopt6Vector4AmaxEv.exit

22:                                               ; preds = %_ZNK5Ipopt14CompoundVector9ConstCompEi.exit
  %23 = load ptr, ptr %.0.i, align 8, !tbaa !8
  %24 = getelementptr inbounds nuw i8, ptr %23, i64 64
  %25 = load ptr, ptr %24, align 8
  %26 = tail call noundef double %25(ptr noundef nonnull align 8 dereferenceable(205) %.0.i)
  %27 = getelementptr inbounds nuw i8, ptr %.0.i, i64 128
  store double %26, ptr %27, align 8, !tbaa !92
  %28 = load i32, ptr %20, align 8, !tbaa !89
  store i32 %28, ptr %18, align 8, !tbaa !31
  %.pre = load ptr, ptr %2, align 8, !tbaa !60
  br label %_ZNK5Ipopt6Vector4AmaxEv.exit

_ZNK5Ipopt6Vector4AmaxEv.exit:                    ; preds = %._crit_edge.i, %22
  %29 = phi ptr [ %10, %._crit_edge.i ], [ %.pre, %22 ]
  %30 = phi double [ %.pre.i, %._crit_edge.i ], [ %26, %22 ]
  %31 = fcmp olt double %.057, %30
  %.sroa.speculated.i = select i1 %31, double %30, double %.057
  %indvars.iv.next = add nuw nsw i64 %indvars.iv, 1
  %32 = getelementptr inbounds nuw i8, ptr %29, i64 16
  %33 = load i32, ptr %32, align 8, !tbaa !37
  %34 = sext i32 %33 to i64
  %35 = icmp slt i64 %indvars.iv.next, %34
  br i1 %35, label %9, label %._crit_edge, !llvm.loop !111
}